(inicovideo_comment_distance.service.nicovideo
VideoInfo
p0
(dp1
S'user_id'
p2
S'2033423'
p3
sS'waybackkey'
p4
S'1419058530.oLjJGaKw6VSd9BeFgpjeTDyV4ck'
p5
sS'video_id'
p6
S'1396842316'
p7
sS'thread_id'
p8
S'1396842316'
p9
sS'ms'
p10
S'http://msg.nicovideo.jp/40/api/'
p11
sS'force_184'
p12
S'1'
p13
sS'threadkey'
p14
S'1419060330.qaX6ETsKAGd1_T7YhFdnMPg4aH8'
p15
sb.