(inicovideo_comment_distance.service.nicovideo
VideoInfo
p0
(dp1
S'user_id'
p2
S'2033423'
p3
sS'waybackkey'
p4
S'1419058527.zX76OBL3oKw3wZZ7cvbHeMpJEqU'
p5
sS'video_id'
p6
S'1396927000'
p7
sS'thread_id'
p8
S'1396927000'
p9
sS'ms'
p10
S'http://msg.nicovideo.jp/3/api/'
p11
sS'force_184'
p12
S'1'
p13
sS'threadkey'
p14
S'1419060327.xYQ6JsBbr2iXW7z0fw71XGG1LQE'
p15
sb.