(inicovideo_comment_distance.service.nicovideo
VideoInfo
p0
(dp1
S'user_id'
p2
S'2033423'
p3
sS'waybackkey'
p4
S'1419073242.BM0cgh8M2VGr5idq8Nl2C-oKXVQ'
p5
sS'video_id'
p6
S'1396579447'
p7
sS'thread_id'
p8
S'1396579447'
p9
sS'ms'
p10
S'http://msg.nicovideo.jp/23/api/'
p11
sS'force_184'
p12
S'1'
p13
sS'threadkey'
p14
S'1419075042.s7cK1uA8OLi1KVkzrYwI1tSQWWI'
p15
sb.