(inicovideo_comment_distance.service.nicovideo
VideoInfo
p0
(dp1
S'user_id'
p2
S'2033423'
p3
sS'waybackkey'
p4
S'1419073155.8U7gB0yuJGw2Fc2Uf7cxvynkIec'
p5
sS'video_id'
p6
S'1396596042'
p7
sS'thread_id'
p8
S'1396596042'
p9
sS'ms'
p10
S'http://msg.nicovideo.jp/14/api/'
p11
sS'force_184'
p12
S'1'
p13
sS'threadkey'
p14
S'1419074955.Drnbb2XYpCgxWc4Qg4xE0k7sMEI'
p15
sb.