(inicovideo_comment_distance.service.nicovideo
VideoInfo
p0
(dp1
S'user_id'
p2
S'2033423'
p3
sS'waybackkey'
p4
S'1419061134.p6tWjZSB0JfhFSW3jodvIvcK4mQ'
p5
sS'video_id'
p6
S'1397464413'
p7
sS'thread_id'
p8
S'1397464413'
p9
sS'ms'
p10
S'http://msg.nicovideo.jp/3/api/'
p11
sS'force_184'
p12
S'1'
p13
sS'threadkey'
p14
S'1419062934.b3G2e7ex1AlcC8Zz-SToC16aZ1Y'
p15
sb.