(inicovideo_comment_distance.service.nicovideo
VideoInfo
p0
(dp1
S'user_id'
p2
S'2033423'
p3
sS'waybackkey'
p4
S'1419061154.A_AIYaAK_qkJtYpoR6QPKC6IRP4'
p5
sS'video_id'
p6
S'1397024417'
p7
sS'thread_id'
p8
S'1397024417'
p9
sS'ms'
p10
S'http://msg.nicovideo.jp/38/api/'
p11
sS'force_184'
p12
S'1'
p13
sS'threadkey'
p14
S'1419062954.woXN3gifKD8H8WV_TsOGlR_XVnA'
p15
sb.