(inicovideo_comment_distance.service.nicovideo
VideoInfo
p0
(dp1
S'user_id'
p2
S'2033423'
p3
sS'waybackkey'
p4
S'1419073246.LIWjL3wbsM8d_jXj0jAfUTs38XE'
p5
sS'video_id'
p6
S'1397111062'
p7
sS'thread_id'
p8
S'1397111062'
p9
sS'ms'
p10
S'http://msg.nicovideo.jp/31/api/'
p11
sS'force_184'
p12
S'1'
p13
sS'threadkey'
p14
S'1419075045.2HHxNnqY9mWguCoNoylqkofYmqM'
p15
sb.