(inicovideo_comment_distance.service.nicovideo
VideoInfo
p0
(dp1
S'user_id'
p2
S'2033423'
p3
sS'waybackkey'
p4
S'1419061164.e6YTSXhdpGZLDayFSEFMP9RgrrI'
p5
sS'video_id'
p6
S'1397220089'
p7
sS'thread_id'
p8
S'1397220089'
p9
sS'ms'
p10
S'http://msg.nicovideo.jp/7/api/'
p11
sS'force_184'
p12
S'1'
p13
sS'threadkey'
p14
S'1419062964.YJaBCoU_WfuyJ4HGRW6qA8xfR-8'
p15
sb.