(inicovideo_comment_distance.service.nicovideo
VideoInfo
p0
(dp1
S'user_id'
p2
S'2033423'
p3
sS'waybackkey'
p4
S'1419061186.rUIeBmpID4Eo2VIGN0WWO5vIOYc'
p5
sS'video_id'
p6
S'1397208688'
p7
sS'thread_id'
p8
S'1397208688'
p9
sS'ms'
p10
S'http://msg.nicovideo.jp/53/api/'
p11
sS'force_184'
p12
S'1'
p13
sS'threadkey'
p14
S'1419062986.UXb_HFD61CAxtZG8L702W_AC7sI'
p15
sb.