(inicovideo_comment_distance.service.nicovideo
VideoInfo
p0
(dp1
S'user_id'
p2
S'2033423'
p3
sS'waybackkey'
p4
S'1419061115.lHGjDSf664dlErPHCvRY9VlHLk0'
p5
sS'video_id'
p6
S'1397536947'
p7
sS'thread_id'
p8
S'1397536947'
p9
sS'ms'
p10
S'http://msg.nicovideo.jp/8/api/'
p11
sS'force_184'
p12
S'1'
p13
sS'threadkey'
p14
S'1419062915.xvfVhBBEuXglAiVuyRR_96MvZ2E'
p15
sb.