(inicovideo_comment_distance.service.nicovideo
VideoInfo
p0
(dp1
S'user_id'
p2
S'2033423'
p3
sS'waybackkey'
p4
S'1419061106.suS5ctORn9YB6N7OtN3UteYJqCI'
p5
sS'video_id'
p6
S'1397538145'
p7
sS'thread_id'
p8
S'1397538145'
p9
sS'ms'
p10
S'http://msg.nicovideo.jp/18/api/'
p11
sS'force_184'
p12
S'1'
p13
sS'threadkey'
p14
S'1419062906.byFBcmx8bbIktvOJ5UAb_SWNsvg'
p15
sb.