(inicovideo_comment_distance.service.nicovideo
VideoInfo
p0
(dp1
S'user_id'
p2
S'2033423'
p3
sS'waybackkey'
p4
S'1419073194.IYSpq3tohdWTusvduTitdT40cig'
p5
sS'video_id'
p6
S'1397120921'
p7
sS'thread_id'
p8
S'1397120921'
p9
sS'ms'
p10
S'http://msg.nicovideo.jp/33/api/'
p11
sS'force_184'
p12
S'1'
p13
sS'threadkey'
p14
S'1419074994.hOTZqJyhwcVK0LeU4DG6e2rqBb8'
p15
sb.