(inicovideo_comment_distance.service.nicovideo
VideoInfo
p0
(dp1
S'user_id'
p2
S'2033423'
p3
sS'waybackkey'
p4
S'1419061182.WSxTBqLs1mr0XyYfLe4JBTNGfHg'
p5
sS'video_id'
p6
S'1397525347'
p7
sS'thread_id'
p8
S'1397525347'
p9
sS'ms'
p10
S'http://msg.nicovideo.jp/20/api/'
p11
sS'force_184'
p12
S'1'
p13
sS'threadkey'
p14
S'1419062982.w-y7z8_LaYX9Yzgn-LqQhuC30EM'
p15
sb.