(inicovideo_comment_distance.service.nicovideo
VideoInfo
p0
(dp1
S'user_id'
p2
S'2033423'
p3
sS'waybackkey'
p4
S'1419073273.8GaKZj00oImcDVpyj1_kvP4tYYE'
p5
sS'video_id'
p6
S'1398070166'
p7
sS'thread_id'
p8
S'1398070166'
p9
sS'ms'
p10
S'http://msg.nicovideo.jp/17/api/'
p11
sS'force_184'
p12
S'1'
p13
sS'threadkey'
p14
S'1419075073.ELbNSovgb2C1Mj3uyqvTl9HTThE'
p15
sb.