(inicovideo_comment_distance.service.nicovideo
VideoInfo
p0
(dp1
S'user_id'
p2
S'2033423'
p3
sS'waybackkey'
p4
S'1419061171.TrsXn5jLfR0NqdZ-IGnoGiipdyI'
p5
sS'video_id'
p6
S'1399952183'
p7
sS'thread_id'
p8
S'1399952183'
p9
sS'ms'
p10
S'http://msg.nicovideo.jp/51/api/'
p11
sS'force_184'
p12
S'1'
p13
sS'threadkey'
p14
S'1419062971.nn-QnSTusofT_Mze3bPv0yGzSL4'
p15
sb.