(inicovideo_comment_distance.service.nicovideo
VideoInfo
p0
(dp1
S'user_id'
p2
S'2033423'
p3
sS'waybackkey'
p4
S'1419061098.5Z6-Fxz_Cr6VBC2VNesdHN-9378'
p5
sS'video_id'
p6
S'sm9'
p7
sS'thread_id'
p8
S'1173108780'
p9
sS'ms'
p10
S'http://msg.nicovideo.jp/10/api/'
p11
sS'force_184'
p12
S'1'
p13
sS'threadkey'
p14
S''
p15
sb.