(inicovideo_comment_distance.service.nicovideo
VideoMeta
p0
(dp1
S'comment_num'
p2
V4243676
p3
sS'video_id'
p4
S'sm9'
p5
sS'thumbnail_url'
p6
Vhttp://tn-skr2.smilevideo.jp/smile?i=9
p7
sS'description'
p8
V\u30ec\u30c3\u30c4\u30b4\u30fc\uff01\u9670\u967d\u5e2b\uff08\u30d5\u30eb\u30b3\u30fc\u30e9\u30b9\u30d0\u30fc\u30b8\u30e7\u30f3\uff09
p9
sS'title'
p10
V\u65b0\u30fb\u8c6a\u8840\u5bfa\u4e00\u65cf -\u7169\u60a9\u89e3\u653e - \u30ec\u30c3\u30c4\u30b4\u30fc\uff01\u9670\u967d\u5e2b
p11
sb.